target datalayout = "e-m:e-p270:32:32-p271:32:32-p272:64:64-i64:64-i128:128-f80:128-n8:16:32:64-S128"
target triple = "x86_64-pc-linux-gnu"

%struct.ps_prochandle = type { ptr, i32, i32, ptr, ptr, i32, ptr, ptr }
%struct.thread_info = type { i32, %struct.user_regs_struct, ptr }
%struct.user_regs_struct = type { i64, i64, i64, i64, i64, i64, i64, i64, i64, i64, i64, i64, i64, i64, i64, i64, i64, i64, i64, i64, i64, i64, i64, i64, i64, i64, i64 }

@.str.12 = private unnamed_addr constant [41 x i8] c"ptrace(PTRACE_DETACH, ..) failed for %d\0A\00", align 1

; Function Attrs: nounwind uwtable
define internal i32 @ptrace_detach(i32 noundef %0) #0 {
  %2 = alloca i32, align 4
  %3 = alloca i32, align 4
  store i32 %0, ptr %3, align 4
  %4 = load i32, ptr %3, align 4
  %5 = icmp ne i32 %4, 0
  br i1 %5, label %6, label %12

6:                                                ; preds = %1
  %7 = load i32, ptr %3, align 4
  %8 = call i64 (i32, ...) @ptrace(i32 noundef 17, i32 noundef %7, ptr noundef null, ptr noundef null) #8
  %9 = icmp slt i64 %8, 0
  br i1 %9, label %10, label %12

10:                                               ; preds = %6
  %11 = load i32, ptr %3, align 4
  call void (ptr, ...) @print_debug(ptr noundef @.str.12, i32 noundef %11)
  store i32 0, ptr %2, align 4
  br label %13

12:                                               ; preds = %6, %1
  store i32 1, ptr %2, align 4
  br label %13

13:                                               ; preds = %12, %10
  %14 = load i32, ptr %2, align 4
  ret i32 %14
}

; Function Attrs: nounwind uwtable
define internal void @detach_all_pids(ptr noundef %0) #0 {
  %2 = alloca ptr, align 8
  %3 = alloca ptr, align 8
  store ptr %0, ptr %2, align 8
  %4 = load ptr, ptr %2, align 8
  %5 = getelementptr inbounds %struct.ps_prochandle, ptr %4, i32 0, i32 6
  %6 = load ptr, ptr %5, align 8
  store ptr %6, ptr %3, align 8
  br label %7

7:                                                ; preds = %10, %1
  %8 = load ptr, ptr %3, align 8
  %9 = icmp ne ptr %8, null
  br i1 %9, label %10, label %18

10:                                               ; preds = %7
  %11 = load ptr, ptr %3, align 8
  %12 = getelementptr inbounds %struct.thread_info, ptr %11, i32 0, i32 0
  %13 = load i32, ptr %12, align 8
  %14 = call i32 @ptrace_detach(i32 noundef %13)
  %15 = load ptr, ptr %3, align 8
  %16 = getelementptr inbounds %struct.thread_info, ptr %15, i32 0, i32 2
  %17 = load ptr, ptr %16, align 8
  store ptr %17, ptr %3, align 8
  br label %7, !llvm.loop !16

18:                                               ; preds = %7
  ret void
}

; Function Attrs: nounwind uwtable
define internal void @process_cleanup(ptr noundef %0) #0 {
  %2 = alloca ptr, align 8
  store ptr %0, ptr %2, align 8
  %3 = load ptr, ptr %2, align 8
  call void @detach_all_pids(ptr noundef %3)
  ret void
}