; Function Attrs: nounwind uwtable
define internal void @process_cleanup(ptr nocapture noundef readonly %0) #0 {
  %2 = getelementptr inbounds i8, ptr %0, i64 40
  %.04.i = load ptr, ptr %2, align 8
  %.not5.i = icmp eq ptr %.04.i, null
  br i1 %.not5.i, label %detach_all_pids.exit, label %.lr.ph.i

.lr.ph.i:                                         ; preds = %1, %ptrace_detach.exit.i
  %.06.i = phi ptr [ %.0.i, %ptrace_detach.exit.i ], [ %.04.i, %1 ]
  %3 = load i32, ptr %.06.i, align 8
  %.not.i.i = icmp eq i32 %3, 0
  br i1 %.not.i.i, label %ptrace_detach.exit.i, label %4

4:                                                ; preds = %.lr.ph.i
  %5 = tail call i64 (i32, ...) @ptrace(i32 noundef 17, i32 noundef %3, ptr noundef null, ptr noundef null) #16
  %6 = icmp slt i64 %5, 0
  br i1 %6, label %7, label %ptrace_detach.exit.i

7:                                                ; preds = %4
  tail call void (ptr, ...) @print_debug(ptr noundef nonnull @.str.12, i32 noundef %3) #16
  br label %ptrace_detach.exit.i

ptrace_detach.exit.i:                             ; preds = %7, %4, %.lr.ph.i
  %8 = getelementptr inbounds i8, ptr %.06.i, i64 224
  %.0.i = load ptr, ptr %8, align 8
  %.not.i = icmp eq ptr %.0.i, null
  br i1 %.not.i, label %detach_all_pids.exit, label %.lr.ph.i, !llvm.loop !15

detach_all_pids.exit:                             ; preds = %ptrace_detach.exit.i, %1
  ret void
}